target datalayout = "e-m:e-p270:32:32-p271:32:32-p272:64:64-i64:64-i128:128-f80:128-n8:16:32:64-S128"
target triple = "x86_64-pc-linux-gnu"

%struct.ssl_st = type { i32, i16, i16, ptr, ptr, ptr, ptr, ptr, i32, i32, ptr, ptr, i32, i32, ptr, ptr, ptr, ptr, ptr, ptr, ptr, ptr, i32, i32, [32 x i8], ptr, ptr, ptr, ptr, ptr, ptr, ptr, i64, %struct.crypto_ex_data_st, ptr, i32, i32, i32, i32, i16, ptr, i32, i64, ptr, ptr, ptr, ptr, ptr, ptr, i32, i32, ptr, ptr, i8, i8, i32 }
%struct.crypto_ex_data_st = type { ptr }
%struct.ssl3_state_st = type { [8 x i8], [8 x i8], [32 x i8], [32 x i8], i8, i8, %struct.ssl3_buffer_st, %struct.ssl3_buffer_st, %struct.ssl3_record_st, i8, i32, i32, i32, i32, ptr, ptr, %struct.env_md_ctx_st, %struct.env_md_ctx_st, i8, i32, [2 x i8], i32, i8, i8, ptr, ptr, ptr, %struct.anon, [64 x i8], i8, [64 x i8], i8, i32, i32, ptr, i64, ptr, i64, i8, [64 x i8] }
%struct.ssl3_buffer_st = type { ptr, i16, i16, i16 }
%struct.ssl3_record_st = type { i8, i16, ptr }
%struct.env_md_ctx_st = type { ptr, ptr, ptr, ptr }
%struct.anon = type { [64 x i8], i32, [64 x i8], i32, i64, i32, ptr, i32, i32, %union.anon, %union.anon.0, i8, i32, ptr, ptr, i64, ptr, i8, i8, i8, i8, i32, i8, ptr, i64, i8, ptr, i8, i8, i8, %struct.ssl_ecdh_ctx_st, ptr, i16 }
%union.anon = type { i32 }
%union.anon.0 = type { i16 }
%struct.ssl_ecdh_ctx_st = type { ptr, ptr }
%struct.ssl_protocol_method_st = type { i8, ptr, ptr, ptr, ptr, ptr, ptr, ptr, ptr, ptr, ptr, ptr, i32, ptr, ptr }
%struct.cbs_st = type { ptr, i64 }
%struct.ecdsa_sig_st = type { ptr, ptr }
%struct.bignum_st = type { ptr, i32, i32, i32, i32 }

@.str = private unnamed_addr constant [117 x i8] c"generated/home/dtcxzyw/WorkSpace/Projects/compilers/llvm-opt-benchmark/bench/libquic/libquic/boringssl/ssl/s3_srvr.c\00", align 1

; Function Attrs: nounwind uwtable
define hidden i32 @ssl3_get_channel_id(ptr noundef %0) #0 {
  %2 = alloca i32, align 4
  %3 = alloca ptr, align 8
  %4 = alloca i32, align 4
  %5 = alloca i32, align 4
  %6 = alloca i64, align 8
  %7 = alloca [64 x i8], align 16
  %8 = alloca i64, align 8
  %9 = alloca ptr, align 8
  %10 = alloca i16, align 2
  %11 = alloca ptr, align 8
  %12 = alloca ptr, align 8
  %13 = alloca ptr, align 8
  %14 = alloca %struct.ecdsa_sig_st, align 8
  %15 = alloca %struct.bignum_st, align 8
  %16 = alloca %struct.bignum_st, align 8
  %17 = alloca %struct.cbs_st, align 8
  %18 = alloca %struct.cbs_st, align 8
  %19 = alloca i32, align 4
  store ptr %0, ptr %3, align 8, !tbaa !6
  call void @llvm.lifetime.start.p0(i64 4, ptr %4) #9
  store i32 -1, ptr %4, align 4, !tbaa !14
  call void @llvm.lifetime.start.p0(i64 4, ptr %5) #9
  call void @llvm.lifetime.start.p0(i64 8, ptr %6) #9
  call void @llvm.lifetime.start.p0(i64 64, ptr %7) #9
  call void @llvm.lifetime.start.p0(i64 8, ptr %8) #9
  call void @llvm.lifetime.start.p0(i64 8, ptr %9) #9
  call void @llvm.lifetime.start.p0(i64 2, ptr %10) #9
  call void @llvm.lifetime.start.p0(i64 8, ptr %11) #9
  store ptr null, ptr %11, align 8, !tbaa !170
  call void @llvm.lifetime.start.p0(i64 8, ptr %12) #9
  store ptr null, ptr %12, align 8, !tbaa !172
  call void @llvm.lifetime.start.p0(i64 8, ptr %13) #9
  store ptr null, ptr %13, align 8, !tbaa !174
  call void @llvm.lifetime.start.p0(i64 16, ptr %14) #9
  call void @llvm.lifetime.start.p0(i64 24, ptr %15) #9
  call void @llvm.lifetime.start.p0(i64 24, ptr %16) #9
  call void @llvm.lifetime.start.p0(i64 16, ptr %17) #9
  call void @llvm.lifetime.start.p0(i64 16, ptr %18) #9
  %20 = load ptr, ptr %3, align 8, !tbaa !6
  %21 = getelementptr inbounds nuw %struct.ssl_st, ptr %20, i32 0, i32 3
  %22 = load ptr, ptr %21, align 8, !tbaa !76
  %23 = getelementptr inbounds nuw %struct.ssl_protocol_method_st, ptr %22, i32 0, i32 5
  %24 = load ptr, ptr %23, align 8, !tbaa !104
  %25 = load ptr, ptr %3, align 8, !tbaa !6
  %26 = call i64 %24(ptr noundef %25, i32 noundef 8752, i32 noundef 8753, i32 noundef 203, i64 noundef 132, i32 noundef 0, ptr noundef %5)
  store i64 %26, ptr %6, align 8, !tbaa !91
  %27 = load i32, ptr %5, align 4, !tbaa !14
  %28 = icmp ne i32 %27, 0
  br i1 %28, label %32, label %29

29:                                               ; preds = %1
  %30 = load i64, ptr %6, align 8, !tbaa !91
  %31 = trunc i64 %30 to i32
  store i32 %31, ptr %2, align 4
  store i32 1, ptr %19, align 4
  br label %161

32:                                               ; preds = %1
  %33 = load ptr, ptr %3, align 8, !tbaa !6
  %34 = getelementptr inbounds [64 x i8], ptr %7, i64 0, i64 0
  %35 = call i32 @tls1_channel_id_hash(ptr noundef %33, ptr noundef %34, ptr noundef %8)
  %36 = icmp ne i32 %35, 0
  br i1 %36, label %38, label %37

37:                                               ; preds = %32
  store i32 -1, ptr %2, align 4
  store i32 1, ptr %19, align 4
  br label %161

38:                                               ; preds = %32
  %39 = load ptr, ptr %3, align 8, !tbaa !6
  %40 = call i32 @ssl3_hash_current_message(ptr noundef %39)
  %41 = icmp ne i32 %40, 0
  br i1 %41, label %43, label %42

42:                                               ; preds = %38
  store i32 -1, ptr %2, align 4
  store i32 1, ptr %19, align 4
  br label %161

43:                                               ; preds = %38
  %44 = load ptr, ptr %3, align 8, !tbaa !6
  %45 = getelementptr inbounds nuw %struct.ssl_st, ptr %44, i32 0, i32 11
  %46 = load ptr, ptr %45, align 8, !tbaa !107
  %47 = load i64, ptr %6, align 8, !tbaa !91
  call void @CBS_init(ptr noundef %17, ptr noundef %46, i64 noundef %47)
  %48 = call i32 @CBS_get_u16(ptr noundef %17, ptr noundef %10)
  %49 = icmp ne i32 %48, 0
  br i1 %49, label %50, label %63

50:                                               ; preds = %43
  %51 = call i32 @CBS_get_u16_length_prefixed(ptr noundef %17, ptr noundef %18)
  %52 = icmp ne i32 %51, 0
  br i1 %52, label %53, label %63

53:                                               ; preds = %50
  %54 = call i64 @CBS_len(ptr noundef %17)
  %55 = icmp ne i64 %54, 0
  br i1 %55, label %63, label %56

56:                                               ; preds = %53
  %57 = load i16, ptr %10, align 2, !tbaa !94
  %58 = zext i16 %57 to i32
  %59 = icmp ne i32 %58, 30032
  br i1 %59, label %63, label %60

60:                                               ; preds = %56
  %61 = call i64 @CBS_len(ptr noundef %18)
  %62 = icmp ne i64 %61, 128
  br i1 %62, label %63, label %64

63:                                               ; preds = %60, %56, %53, %50, %43
  call void @ERR_put_error(i32 noundef 16, i32 noundef 0, i32 noundef 159, ptr noundef @.str, i32 noundef 2206)
  store i32 -1, ptr %2, align 4
  store i32 1, ptr %19, align 4
  br label %161

64:                                               ; preds = %60
  %65 = call ptr @EC_GROUP_new_by_curve_name(i32 noundef 415)
  store ptr %65, ptr %11, align 8, !tbaa !170
  %66 = load ptr, ptr %11, align 8, !tbaa !170
  %67 = icmp ne ptr %66, null
  br i1 %67, label %69, label %68

68:                                               ; preds = %64
  call void @ERR_put_error(i32 noundef 16, i32 noundef 0, i32 noundef 180, ptr noundef @.str, i32 noundef 2212)
  store i32 -1, ptr %2, align 4
  store i32 1, ptr %19, align 4
  br label %161

69:                                               ; preds = %64
  call void @BN_init(ptr noundef %15)
  call void @BN_init(ptr noundef %16)
  %70 = call ptr @BN_new()
  %71 = getelementptr inbounds nuw %struct.ecdsa_sig_st, ptr %14, i32 0, i32 0
  store ptr %70, ptr %71, align 8, !tbaa !176
  %72 = call ptr @BN_new()
  %73 = getelementptr inbounds nuw %struct.ecdsa_sig_st, ptr %14, i32 0, i32 1
  store ptr %72, ptr %73, align 8, !tbaa !178
  %74 = getelementptr inbounds nuw %struct.ecdsa_sig_st, ptr %14, i32 0, i32 0
  %75 = load ptr, ptr %74, align 8, !tbaa !176
  %76 = icmp eq ptr %75, null
  br i1 %76, label %81, label %77

77:                                               ; preds = %69
  %78 = getelementptr inbounds nuw %struct.ecdsa_sig_st, ptr %14, i32 0, i32 1
  %79 = load ptr, ptr %78, align 8, !tbaa !178
  %80 = icmp eq ptr %79, null
  br i1 %80, label %81, label %82

81:                                               ; preds = %77, %69
  br label %152

82:                                               ; preds = %77
  %83 = call ptr @CBS_data(ptr noundef %18)
  store ptr %83, ptr %9, align 8, !tbaa !89
  %84 = load ptr, ptr %9, align 8, !tbaa !89
  %85 = getelementptr inbounds i8, ptr %84, i64 0
  %86 = call ptr @BN_bin2bn(ptr noundef %85, i64 noundef 32, ptr noundef %15)
  %87 = icmp eq ptr %86, null
  br i1 %87, label %107, label %88

88:                                               ; preds = %82
  %89 = load ptr, ptr %9, align 8, !tbaa !89
  %90 = getelementptr inbounds i8, ptr %89, i64 32
  %91 = call ptr @BN_bin2bn(ptr noundef %90, i64 noundef 32, ptr noundef %16)
  %92 = icmp eq ptr %91, null
  br i1 %92, label %107, label %93

93:                                               ; preds = %88
  %94 = load ptr, ptr %9, align 8, !tbaa !89
  %95 = getelementptr inbounds i8, ptr %94, i64 64
  %96 = getelementptr inbounds nuw %struct.ecdsa_sig_st, ptr %14, i32 0, i32 0
  %97 = load ptr, ptr %96, align 8, !tbaa !176
  %98 = call ptr @BN_bin2bn(ptr noundef %95, i64 noundef 32, ptr noundef %97)
  %99 = icmp eq ptr %98, null
  br i1 %99, label %107, label %100

100:                                              ; preds = %93
  %101 = load ptr, ptr %9, align 8, !tbaa !89
  %102 = getelementptr inbounds i8, ptr %101, i64 96
  %103 = getelementptr inbounds nuw %struct.ecdsa_sig_st, ptr %14, i32 0, i32 1
  %104 = load ptr, ptr %103, align 8, !tbaa !178
  %105 = call ptr @BN_bin2bn(ptr noundef %102, i64 noundef 32, ptr noundef %104)
  %106 = icmp eq ptr %105, null
  br i1 %106, label %107, label %108

107:                                              ; preds = %100, %93, %88, %82
  br label %152

108:                                              ; preds = %100
  %109 = load ptr, ptr %11, align 8, !tbaa !170
  %110 = call ptr @EC_POINT_new(ptr noundef %109)
  store ptr %110, ptr %13, align 8, !tbaa !174
  %111 = load ptr, ptr %13, align 8, !tbaa !174
  %112 = icmp ne ptr %111, null
  br i1 %112, label %113, label %118

113:                                              ; preds = %108
  %114 = load ptr, ptr %11, align 8, !tbaa !170
  %115 = load ptr, ptr %13, align 8, !tbaa !174
  %116 = call i32 @EC_POINT_set_affine_coordinates_GFp(ptr noundef %114, ptr noundef %115, ptr noundef %15, ptr noundef %16, ptr noundef null)
  %117 = icmp ne i32 %116, 0
  br i1 %117, label %119, label %118

118:                                              ; preds = %113, %108
  br label %152

119:                                              ; preds = %113
  %120 = call ptr @EC_KEY_new()
  store ptr %120, ptr %12, align 8, !tbaa !172
  %121 = load ptr, ptr %12, align 8, !tbaa !172
  %122 = icmp ne ptr %121, null
  br i1 %122, label %123, label %133

123:                                              ; preds = %119
  %124 = load ptr, ptr %12, align 8, !tbaa !172
  %125 = load ptr, ptr %11, align 8, !tbaa !170
  %126 = call i32 @EC_KEY_set_group(ptr noundef %124, ptr noundef %125)
  %127 = icmp ne i32 %126, 0
  br i1 %127, label %128, label %133

128:                                              ; preds = %123
  %129 = load ptr, ptr %12, align 8, !tbaa !172
  %130 = load ptr, ptr %13, align 8, !tbaa !174
  %131 = call i32 @EC_KEY_set_public_key(ptr noundef %129, ptr noundef %130)
  %132 = icmp ne i32 %131, 0
  br i1 %132, label %134, label %133

133:                                              ; preds = %128, %123, %119
  br label %152

134:                                              ; preds = %128
  %135 = getelementptr inbounds [64 x i8], ptr %7, i64 0, i64 0
  %136 = load i64, ptr %8, align 8, !tbaa !91
  %137 = load ptr, ptr %12, align 8, !tbaa !172
  %138 = call i32 @ECDSA_do_verify(ptr noundef %135, i64 noundef %136, ptr noundef %14, ptr noundef %137)
  %139 = icmp ne i32 %138, 0
  br i1 %139, label %145, label %140

140:                                              ; preds = %134
  call void @ERR_put_error(i32 noundef 16, i32 noundef 0, i32 noundef 129, ptr noundef @.str, i32 noundef 2247)
  %141 = load ptr, ptr %3, align 8, !tbaa !6
  %142 = getelementptr inbounds nuw %struct.ssl_st, ptr %141, i32 0, i32 14
  %143 = load ptr, ptr %142, align 8, !tbaa !51
  %144 = getelementptr inbounds nuw %struct.ssl3_state_st, ptr %143, i32 0, i32 38
  store i8 0, ptr %144, align 8, !tbaa !80
  br label %152

145:                                              ; preds = %134
  %146 = load ptr, ptr %3, align 8, !tbaa !6
  %147 = getelementptr inbounds nuw %struct.ssl_st, ptr %146, i32 0, i32 14
  %148 = load ptr, ptr %147, align 8, !tbaa !51
  %149 = getelementptr inbounds nuw %struct.ssl3_state_st, ptr %148, i32 0, i32 39
  %150 = getelementptr inbounds [64 x i8], ptr %149, i64 0, i64 0
  %151 = load ptr, ptr %9, align 8, !tbaa !89
  call void @llvm.memcpy.p0.p0.i64(ptr align 1 %150, ptr align 1 %151, i64 64, i1 false)
  store i32 1, ptr %4, align 4, !tbaa !14
  br label %152

152:                                              ; preds = %145, %140, %133, %118, %107, %81
  call void @BN_free(ptr noundef %15)
  call void @BN_free(ptr noundef %16)
  %153 = getelementptr inbounds nuw %struct.ecdsa_sig_st, ptr %14, i32 0, i32 0
  %154 = load ptr, ptr %153, align 8, !tbaa !176
  call void @BN_free(ptr noundef %154)
  %155 = getelementptr inbounds nuw %struct.ecdsa_sig_st, ptr %14, i32 0, i32 1
  %156 = load ptr, ptr %155, align 8, !tbaa !178
  call void @BN_free(ptr noundef %156)
  %157 = load ptr, ptr %12, align 8, !tbaa !172
  call void @EC_KEY_free(ptr noundef %157)
  %158 = load ptr, ptr %13, align 8, !tbaa !174
  call void @EC_POINT_free(ptr noundef %158)
  %159 = load ptr, ptr %11, align 8, !tbaa !170
  call void @EC_GROUP_free(ptr noundef %159)
  %160 = load i32, ptr %4, align 4, !tbaa !14
  store i32 %160, ptr %2, align 4
  store i32 1, ptr %19, align 4
  br label %161

161:                                              ; preds = %152, %68, %63, %42, %37, %29
  call void @llvm.lifetime.end.p0(i64 16, ptr %18) #9
  call void @llvm.lifetime.end.p0(i64 16, ptr %17) #9
  call void @llvm.lifetime.end.p0(i64 24, ptr %16) #9
  call void @llvm.lifetime.end.p0(i64 24, ptr %15) #9
  call void @llvm.lifetime.end.p0(i64 16, ptr %14) #9
  call void @llvm.lifetime.end.p0(i64 8, ptr %13) #9
  call void @llvm.lifetime.end.p0(i64 8, ptr %12) #9
  call void @llvm.lifetime.end.p0(i64 8, ptr %11) #9
  call void @llvm.lifetime.end.p0(i64 2, ptr %10) #9
  call void @llvm.lifetime.end.p0(i64 8, ptr %9) #9
  call void @llvm.lifetime.end.p0(i64 8, ptr %8) #9
  call void @llvm.lifetime.end.p0(i64 64, ptr %7) #9
  call void @llvm.lifetime.end.p0(i64 8, ptr %6) #9
  call void @llvm.lifetime.end.p0(i64 4, ptr %5) #9
  call void @llvm.lifetime.end.p0(i64 4, ptr %4) #9
  %162 = load i32, ptr %2, align 4
  ret i32 %162
}