; Function Attrs: nounwind uwtable
define hidden i32 @ssl3_get_channel_id(ptr noundef %0) local_unnamed_addr #0 {
  %2 = alloca i32, align 4
  %3 = alloca [64 x i8], align 16
  %4 = alloca i64, align 8
  %5 = alloca i16, align 2
  %6 = alloca %struct.ecdsa_sig_st, align 8
  %7 = alloca %struct.bignum_st, align 8
  %8 = alloca %struct.bignum_st, align 8
  %9 = alloca %struct.cbs_st, align 8
  %10 = alloca %struct.cbs_st, align 8
  call void @llvm.lifetime.start.p0(i64 4, ptr nonnull %2) #10
  call void @llvm.lifetime.start.p0(i64 64, ptr nonnull %3) #10
  call void @llvm.lifetime.start.p0(i64 8, ptr nonnull %4) #10
  call void @llvm.lifetime.start.p0(i64 2, ptr nonnull %5) #10
  call void @llvm.lifetime.start.p0(i64 16, ptr nonnull %6) #10
  call void @llvm.lifetime.start.p0(i64 24, ptr nonnull %7) #10
  call void @llvm.lifetime.start.p0(i64 24, ptr nonnull %8) #10
  call void @llvm.lifetime.start.p0(i64 16, ptr nonnull %9) #10
  call void @llvm.lifetime.start.p0(i64 16, ptr nonnull %10) #10
  %11 = getelementptr inbounds nuw i8, ptr %0, i64 8
  %12 = load ptr, ptr %11, align 8, !tbaa !64
  %13 = getelementptr inbounds nuw i8, ptr %12, i64 40
  %14 = load ptr, ptr %13, align 8, !tbaa !100
  %15 = call i64 %14(ptr noundef %0, i32 noundef 8752, i32 noundef 8753, i32 noundef 203, i64 noundef 132, i32 noundef 0, ptr noundef nonnull %2) #10
  %16 = load i32, ptr %2, align 4, !tbaa !93
  %.not = icmp eq i32 %16, 0
  br i1 %.not, label %17, label %19

17:                                               ; preds = %1
  %18 = trunc i64 %15 to i32
  br label %86

19:                                               ; preds = %1
  %20 = call i32 @tls1_channel_id_hash(ptr noundef nonnull %0, ptr noundef nonnull %3, ptr noundef nonnull %4) #10
  %.not41 = icmp eq i32 %20, 0
  br i1 %.not41, label %86, label %21

21:                                               ; preds = %19
  %22 = call i32 @ssl3_hash_current_message(ptr noundef nonnull %0) #10
  %.not42 = icmp eq i32 %22, 0
  br i1 %.not42, label %86, label %23

23:                                               ; preds = %21
  %24 = getelementptr inbounds nuw i8, ptr %0, i64 64
  %25 = load ptr, ptr %24, align 8, !tbaa !104
  call void @CBS_init(ptr noundef nonnull %9, ptr noundef %25, i64 noundef %15) #10
  %26 = call i32 @CBS_get_u16(ptr noundef nonnull %9, ptr noundef nonnull %5) #10
  %.not43 = icmp eq i32 %26, 0
  br i1 %.not43, label %36, label %27

27:                                               ; preds = %23
  %28 = call i32 @CBS_get_u16_length_prefixed(ptr noundef nonnull %9, ptr noundef nonnull %10) #10
  %.not44 = icmp eq i32 %28, 0
  br i1 %.not44, label %36, label %29

29:                                               ; preds = %27
  %30 = call i64 @CBS_len(ptr noundef nonnull %9) #10
  %31 = icmp ne i64 %30, 0
  %32 = load i16, ptr %5, align 2
  %33 = icmp ne i16 %32, 30032
  %or.cond = select i1 %31, i1 true, i1 %33
  br i1 %or.cond, label %36, label %34

34:                                               ; preds = %29
  %35 = call i64 @CBS_len(ptr noundef nonnull %10) #10
  %.not45 = icmp eq i64 %35, 128
  br i1 %.not45, label %37, label %36

36:                                               ; preds = %34, %29, %27, %23
  call void @ERR_put_error(i32 noundef 16, i32 noundef 0, i32 noundef 159, ptr noundef nonnull @.str, i32 noundef 2206) #10
  br label %86

37:                                               ; preds = %34
  %38 = call ptr @EC_GROUP_new_by_curve_name(i32 noundef 415) #10
  %.not46 = icmp eq ptr %38, null
  br i1 %.not46, label %39, label %40

39:                                               ; preds = %37
  call void @ERR_put_error(i32 noundef 16, i32 noundef 0, i32 noundef 180, ptr noundef nonnull @.str, i32 noundef 2212) #10
  br label %86

40:                                               ; preds = %37
  call void @BN_init(ptr noundef nonnull %7) #10
  call void @BN_init(ptr noundef nonnull %8) #10
  %41 = call ptr @BN_new() #10
  store ptr %41, ptr %6, align 8, !tbaa !156
  %42 = call ptr @BN_new() #10
  %43 = getelementptr inbounds nuw i8, ptr %6, i64 8
  store ptr %42, ptr %43, align 8, !tbaa !158
  %44 = icmp eq ptr %41, null
  %45 = icmp eq ptr %42, null
  %or.cond5 = select i1 %44, i1 true, i1 %45
  br i1 %or.cond5, label %83, label %46

46:                                               ; preds = %40
  %47 = call ptr @CBS_data(ptr noundef nonnull %10) #10
  %48 = call ptr @BN_bin2bn(ptr noundef %47, i64 noundef 32, ptr noundef nonnull %7) #10
  %49 = icmp eq ptr %48, null
  br i1 %49, label %83, label %50

50:                                               ; preds = %46
  %51 = getelementptr inbounds nuw i8, ptr %47, i64 32
  %52 = call ptr @BN_bin2bn(ptr noundef nonnull %51, i64 noundef 32, ptr noundef nonnull %8) #10
  %53 = icmp eq ptr %52, null
  br i1 %53, label %83, label %54

54:                                               ; preds = %50
  %55 = getelementptr inbounds nuw i8, ptr %47, i64 64
  %56 = call ptr @BN_bin2bn(ptr noundef nonnull %55, i64 noundef 32, ptr noundef nonnull %41) #10
  %57 = icmp eq ptr %56, null
  br i1 %57, label %83, label %58

58:                                               ; preds = %54
  %59 = getelementptr inbounds nuw i8, ptr %47, i64 96
  %60 = call ptr @BN_bin2bn(ptr noundef nonnull %59, i64 noundef 32, ptr noundef nonnull %42) #10
  %61 = icmp eq ptr %60, null
  br i1 %61, label %83, label %62

62:                                               ; preds = %58
  %63 = call ptr @EC_POINT_new(ptr noundef nonnull %38) #10
  %.not47 = icmp eq ptr %63, null
  br i1 %.not47, label %83, label %64

64:                                               ; preds = %62
  %65 = call i32 @EC_POINT_set_affine_coordinates_GFp(ptr noundef nonnull %38, ptr noundef nonnull %63, ptr noundef nonnull %7, ptr noundef nonnull %8, ptr noundef null) #10
  %.not48 = icmp eq i32 %65, 0
  br i1 %.not48, label %83, label %66

66:                                               ; preds = %64
  %67 = call ptr @EC_KEY_new() #10
  %.not49 = icmp eq ptr %67, null
  br i1 %.not49, label %83, label %68

68:                                               ; preds = %66
  %69 = call i32 @EC_KEY_set_group(ptr noundef nonnull %67, ptr noundef nonnull %38) #10
  %.not50 = icmp eq i32 %69, 0
  br i1 %.not50, label %83, label %70

70:                                               ; preds = %68
  %71 = call i32 @EC_KEY_set_public_key(ptr noundef nonnull %67, ptr noundef nonnull %63) #10
  %.not51 = icmp eq i32 %71, 0
  br i1 %.not51, label %83, label %72

72:                                               ; preds = %70
  %73 = load i64, ptr %4, align 8, !tbaa !97
  %74 = call i32 @ECDSA_do_verify(ptr noundef nonnull %3, i64 noundef %73, ptr noundef nonnull %6, ptr noundef nonnull %67) #10
  %.not52 = icmp eq i32 %74, 0
  br i1 %.not52, label %75, label %79

75:                                               ; preds = %72
  call void @ERR_put_error(i32 noundef 16, i32 noundef 0, i32 noundef 129, ptr noundef nonnull @.str, i32 noundef 2247) #10
  %76 = getelementptr inbounds nuw i8, ptr %0, i64 80
  %77 = load ptr, ptr %76, align 8, !tbaa !46
  %78 = getelementptr inbounds nuw i8, ptr %77, i64 768
  store i8 0, ptr %78, align 8, !tbaa !77
  br label %83

79:                                               ; preds = %72
  %80 = getelementptr inbounds nuw i8, ptr %0, i64 80
  %81 = load ptr, ptr %80, align 8, !tbaa !46
  %82 = getelementptr inbounds nuw i8, ptr %81, i64 769
  call void @llvm.memcpy.p0.p0.i64(ptr noundef nonnull align 1 dereferenceable(64) %82, ptr noundef nonnull align 1 dereferenceable(64) %47, i64 64, i1 false)
  br label %83

83:                                               ; preds = %66, %68, %70, %62, %64, %46, %50, %54, %58, %40, %79, %75
  %.036 = phi i32 [ -1, %40 ], [ -1, %46 ], [ -1, %50 ], [ -1, %54 ], [ -1, %58 ], [ 1, %79 ], [ -1, %75 ], [ -1, %70 ], [ -1, %68 ], [ -1, %66 ], [ -1, %64 ], [ -1, %62 ]
  %.034 = phi ptr [ null, %40 ], [ null, %46 ], [ null, %50 ], [ null, %54 ], [ null, %58 ], [ %67, %79 ], [ %67, %75 ], [ %67, %70 ], [ %67, %68 ], [ null, %66 ], [ null, %64 ], [ null, %62 ]
  %.0 = phi ptr [ null, %40 ], [ null, %46 ], [ null, %50 ], [ null, %54 ], [ null, %58 ], [ %63, %79 ], [ %63, %75 ], [ %63, %70 ], [ %63, %68 ], [ %63, %66 ], [ %63, %64 ], [ null, %62 ]
  call void @BN_free(ptr noundef nonnull %7) #10
  call void @BN_free(ptr noundef nonnull %8) #10
  %84 = load ptr, ptr %6, align 8, !tbaa !156
  call void @BN_free(ptr noundef %84) #10
  %85 = load ptr, ptr %43, align 8, !tbaa !158
  call void @BN_free(ptr noundef %85) #10
  call void @EC_KEY_free(ptr noundef %.034) #10
  call void @EC_POINT_free(ptr noundef %.0) #10
  call void @EC_GROUP_free(ptr noundef nonnull %38) #10
  br label %86

86:                                               ; preds = %21, %19, %83, %39, %36, %17
  %.035 = phi i32 [ -1, %36 ], [ %.036, %83 ], [ -1, %39 ], [ %18, %17 ], [ -1, %19 ], [ -1, %21 ]
  call void @llvm.lifetime.end.p0(i64 16, ptr nonnull %10) #10
  call void @llvm.lifetime.end.p0(i64 16, ptr nonnull %9) #10
  call void @llvm.lifetime.end.p0(i64 24, ptr nonnull %8) #10
  call void @llvm.lifetime.end.p0(i64 24, ptr nonnull %7) #10
  call void @llvm.lifetime.end.p0(i64 16, ptr nonnull %6) #10
  call void @llvm.lifetime.end.p0(i64 2, ptr nonnull %5) #10
  call void @llvm.lifetime.end.p0(i64 8, ptr nonnull %4) #10
  call void @llvm.lifetime.end.p0(i64 64, ptr nonnull %3) #10
  call void @llvm.lifetime.end.p0(i64 4, ptr nonnull %2) #10
  ret i32 %.035
}